Certificate:
    Data:
        Version: 3 (0x2)
        Serial Number: 4786 (0x12b2)
        Signature Algorithm: sha1WithRSAEncryption
        Issuer: C=FR, O=CNRS, CN=GRID-FR
        Validity
            Not Before: Jan 14 12:12:53 2009 GMT
            Not After : Jan 14 12:12:53 2010 GMT
        Subject: O=GRID-FR, C=FR, O=CNRS, OU=CC-LYON, CN=cclcgvomsli01.in2p3.fr
        Subject Public Key Info:
            Public Key Algorithm: rsaEncryption
            RSA Public Key: (1024 bit)
                Modulus (1024 bit):
                    00:a0:68:ed:c2:bb:e2:bc:77:94:5d:a8:12:72:23:
                    35:6f:22:fa:e3:a1:ed:ee:a2:b8:5c:20:2d:6d:5a:
                    5b:0b:7b:a3:79:7f:14:a6:1b:9f:12:7a:52:01:d0:
                    3a:c7:fd:2b:db:7b:77:ad:2a:1c:06:d1:62:ac:87:
                    a5:4a:7c:e5:a1:49:4e:55:c8:6c:6d:db:9e:eb:b4:
                    dd:58:a1:a5:32:e2:39:0d:f4:88:50:ad:f1:63:97:
                    aa:a5:42:e9:36:a0:1d:50:68:6b:97:f6:44:e3:be:
                    d9:ab:77:f2:2a:ec:12:f4:28:2a:66:2c:1f:53:51:
                    72:51:6f:89:d1:62:54:4d:a3
                Exponent: 65537 (0x10001)
        X509v3 extensions:
            X509v3 Basic Constraints: critical
                CA:FALSE
            Netscape Cert Type: 
                SSL Client, SSL Server
            X509v3 Key Usage: critical
                Digital Signature, Non Repudiation, Key Encipherment, Data Encipherment, Key Agreement
            Netscape Comment: 
                Certificat serveur GRID-FR
            X509v3 Subject Key Identifier: 
                0F:70:19:E7:49:C8:98:3E:CA:2E:72:D9:05:D2:0F:CC:82:EA:B3:B6
            X509v3 Authority Key Identifier: 
                keyid:77:49:79:C1:F6:BB:92:F0:EC:08:C3:EE:D1:9C:B0:77:10:8C:93:2F
                DirName:/C=FR/O=CNRS/CN=CNRS-Projets
                serial:0C

            X509v3 Certificate Policies: 
                Policy: 1.3.6.1.4.1.10813.1.1.8.1.0

            X509v3 Subject Alternative Name: 
                email:grid.admin@cc.in2p3.fr
            X509v3 CRL Distribution Points: 
                URI:http://crls.services.cnrs.fr/GRID-FR/getder.crl

            unicoreKeyUsage: 
                unicoreNJS
    Signature Algorithm: sha1WithRSAEncryption
        1a:fe:eb:90:8c:ac:3d:a1:ad:61:d2:03:af:65:4c:fb:e2:68:
        95:05:25:af:17:66:9c:88:ff:b1:31:cc:bd:2c:21:75:7b:5b:
        59:3d:85:ad:43:91:ed:ea:72:eb:5b:1f:a6:f2:aa:95:45:29:
        58:34:3f:01:c1:24:7e:09:ea:7e:b9:ba:61:cb:86:c6:25:ae:
        dc:04:84:78:59:a3:de:14:9c:88:e0:2b:10:26:d5:ac:01:78:
        c2:6f:5b:98:a3:33:33:d3:b4:10:cc:c8:88:93:78:14:02:16:
        ff:d6:e0:7f:f1:ce:a9:dd:8c:7a:5c:a7:15:de:dd:39:ac:32:
        ab:0c:48:b9:95:e1:cb:91:b4:a6:eb:88:24:58:93:99:49:f6:
        89:e2:f2:97:f6:73:ef:35:34:45:ba:38:b2:96:9f:e7:fd:52:
        a9:b9:c7:be:38:ec:21:b8:70:4e:fd:a9:71:76:67:da:da:7e:
        9f:9e:b0:bc:31:44:44:89:43:ad:fb:53:10:c1:26:f1:70:bf:
        47:e9:a1:ac:98:78:5b:52:a4:12:b9:d8:80:ff:bc:ac:49:7d:
        c8:8d:81:36:f4:c7:fd:02:68:1b:79:69:6b:b6:5b:70:ab:c4:
        7d:3a:b7:c2:84:12:bd:80:5d:f3:f6:47:ca:96:0e:0e:ce:d4:
        df:33:76:81
-----BEGIN CERTIFICATE-----
MIID/TCCAuWgAwIBAgICErIwDQYJKoZIhvcNAQEFBQAwLjELMAkGA1UEBhMCRlIx
DTALBgNVBAoTBENOUlMxEDAOBgNVBAMTB0dSSUQtRlIwHhcNMDkwMTE0MTIxMjUz
WhcNMTAwMTE0MTIxMjUzWjBhMRAwDgYDVQQKEwdHUklELUZSMQswCQYDVQQGEwJG
UjENMAsGA1UEChMEQ05SUzEQMA4GA1UECxMHQ0MtTFlPTjEfMB0GA1UEAxMWY2Ns
Y2d2b21zbGkwMS5pbjJwMy5mcjCBnzANBgkqhkiG9w0BAQEFAAOBjQAwgYkCgYEA
oGjtwrvivHeUXagSciM1byL646Ht7qK4XCAtbVpbC3ujeX8UphufEnpSAdA6x/0r
23t3rSocBtFirIelSnzloUlOVchsbdue67TdWKGlMuI5DfSIUK3xY5eqpULpNqAd
UGhrl/ZE477Zq3fyKuwS9CgqZiwfU1FyUW+J0WJUTaMCAwEAAaOCAXQwggFwMAwG
A1UdEwEB/wQCMAAwEQYJYIZIAYb4QgEBBAQDAgbAMA4GA1UdDwEB/wQEAwID+DAp
BglghkgBhvhCAQ0EHBYaQ2VydGlmaWNhdCBzZXJ2ZXVyIEdSSUQtRlIwHQYDVR0O
BBYEFA9wGedJyJg+yi5y2QXSD8yC6rO2MFsGA1UdIwRUMFKAFHdJecH2u5Lw7AjD
7tGcsHcQjJMvoTekNTAzMQswCQYDVQQGEwJGUjENMAsGA1UEChMEQ05SUzEVMBMG
A1UEAxMMQ05SUy1Qcm9qZXRzggEMMBkGA1UdIAQSMBAwDgYMKwYBBAHUPQEBCAEA
MCEGA1UdEQQaMBiBFmdyaWQuYWRtaW5AY2MuaW4ycDMuZnIwQAYDVR0fBDkwNzA1
oDOgMYYvaHR0cDovL2NybHMuc2VydmljZXMuY25ycy5mci9HUklELUZSL2dldGRl
ci5jcmwwFgYIKwYBBAG7YgEECnVuaWNvcmVOSlMwDQYJKoZIhvcNAQEFBQADggEB
ABr+65CMrD2hrWHSA69lTPviaJUFJa8XZpyI/7ExzL0sIXV7W1k9ha1Dke3qcutb
H6byqpVFKVg0PwHBJH4J6n65umHLhsYlrtwEhHhZo94UnIjgKxAm1awBeMJvW5ij
MzPTtBDMyIiTeBQCFv/W4H/xzqndjHpcpxXe3TmsMqsMSLmV4cuRtKbriCRYk5lJ
9oni8pf2c+81NEW6OLKWn+f9Uqm5x7447CG4cE79qXF2Z9rafp+esLwxRESJQ637
UxDBJvFwv0fpoayYeFtSpBK52ID/vKxJfciNgTb0x/0CaBt5aWu2W3CrxH06t8KE
Er2AXfP2R8qWDg7O1N8zdoE=
-----END CERTIFICATE-----
