Certificate:
    Data:
        Version: 3 (0x2)
        Serial Number: 1413 (0x585)
        Signature Algorithm: sha1WithRSAEncryption
        Issuer: C=FR, O=CNRS, CN=GRID2-FR
        Validity
            Not Before: Dec  1 15:39:07 2009 GMT
            Not After : Dec  1 15:39:07 2010 GMT
        Subject: O=GRID-FR, C=FR, O=CNRS, OU=CC-LYON, CN=cclcgvomsli01.in2p3.fr
        Subject Public Key Info:
            Public Key Algorithm: rsaEncryption
            RSA Public Key: (1024 bit)
                Modulus (1024 bit):
                    00:94:7c:1d:32:09:dd:0b:3b:58:ea:42:42:c0:b8:
                    9b:c2:46:bf:9d:65:55:b5:56:fd:28:16:80:41:43:
                    44:c4:a5:91:e1:ef:fb:ed:b1:a3:96:dc:a8:c9:da:
                    45:be:27:b5:ad:e0:a7:4b:78:24:2b:7f:b4:cd:16:
                    a4:37:d3:0e:1c:8e:1e:df:8f:35:16:c7:b0:be:62:
                    a1:84:fb:57:bb:30:12:91:ad:97:f8:a9:4f:c7:ea:
                    27:c5:ba:87:a3:6f:89:4a:af:03:2b:7e:75:e4:27:
                    b1:41:30:8f:44:7c:24:13:38:fb:6f:5c:7c:3b:40:
                    e6:c0:19:89:44:6d:b2:68:2b
                Exponent: 65537 (0x10001)
        X509v3 extensions:
            X509v3 Basic Constraints: critical
                CA:FALSE
            Netscape Cert Type: 
                SSL Client, SSL Server
            X509v3 Key Usage: critical
                Digital Signature, Non Repudiation, Key Encipherment, Data Encipherment, Key Agreement
            Netscape Comment: 
                GRID2-FR server certificate
            X509v3 Subject Key Identifier: 
                9F:75:5A:B0:D3:6E:49:64:D5:7C:3A:CC:C7:12:7E:3B:D7:90:A9:EB
            X509v3 Authority Key Identifier: 
                keyid:27:96:48:27:EE:21:B6:F2:AF:B1:2D:7D:FA:F7:D7:48:25:70:95:93
                DirName:/C=FR/O=CNRS/CN=CNRS2-Projets
                serial:03

            X509v3 Certificate Policies: 
                Policy: 1.3.6.1.4.1.10813.1.1.8.1.1

            X509v3 Subject Alternative Name: 
                email:grid.admin@cc.in2p3.fr
            X509v3 CRL Distribution Points: 
                URI:http://crls.services.cnrs.fr/GRID2-FR/getder.crl

            1.3.6.1.4.1.7650.1: 
                unicoreNJS
    Signature Algorithm: sha1WithRSAEncryption
        2c:26:df:83:36:cd:7f:07:44:9d:a4:37:d7:bd:7b:d2:d1:4f:
        c7:74:a2:28:b3:d8:7a:6c:6e:08:2e:97:b0:86:a8:17:82:e4:
        c2:00:0a:ef:e3:fb:e1:df:cb:be:96:d7:d4:1c:ba:bb:9d:8e:
        95:05:c2:c9:61:00:89:31:c1:9c:a3:c2:71:51:e0:1d:69:3b:
        dd:72:5d:bc:4c:df:e1:90:53:c2:df:42:c9:b0:35:ef:dd:63:
        97:0e:43:33:f3:48:df:b0:db:c5:00:e3:50:95:0c:a9:ce:20:
        f8:b8:03:c6:1c:a5:a2:17:a6:6f:5c:64:e8:ea:ec:dc:d5:64:
        55:95:7b:e0:d3:1d:e9:b0:b6:c6:a2:10:5b:70:14:13:90:58:
        48:dc:fe:70:45:8d:d6:d4:a8:ac:e6:c1:19:e9:36:08:59:07:
        5d:4a:ed:e1:ef:b4:c4:b1:1e:be:83:0e:b8:51:0b:fd:67:5c:
        d1:2b:9f:32:41:1e:a4:cb:61:57:28:4c:8d:b9:6c:c2:a2:a5:
        fe:a1:fb:dd:45:14:c9:f3:0d:62:27:05:4f:43:17:c2:a0:0e:
        97:8c:05:9e:ee:42:88:a7:08:3b:58:4a:3b:25:da:0e:fc:81:
        e7:37:73:1f:52:c3:bc:37:ec:cb:e5:f4:ab:b0:73:ba:35:cb:
        d3:cd:14:52
-----BEGIN CERTIFICATE-----
MIIEATCCAumgAwIBAgICBYUwDQYJKoZIhvcNAQEFBQAwLzELMAkGA1UEBhMCRlIx
DTALBgNVBAoTBENOUlMxETAPBgNVBAMTCEdSSUQyLUZSMB4XDTA5MTIwMTE1Mzkw
N1oXDTEwMTIwMTE1MzkwN1owYTEQMA4GA1UEChMHR1JJRC1GUjELMAkGA1UEBhMC
RlIxDTALBgNVBAoTBENOUlMxEDAOBgNVBAsTB0NDLUxZT04xHzAdBgNVBAMTFmNj
bGNndm9tc2xpMDEuaW4ycDMuZnIwgZ8wDQYJKoZIhvcNAQEBBQADgY0AMIGJAoGB
AJR8HTIJ3Qs7WOpCQsC4m8JGv51lVbVW/SgWgEFDRMSlkeHv++2xo5bcqMnaRb4n
ta3gp0t4JCt/tM0WpDfTDhyOHt+PNRbHsL5ioYT7V7swEpGtl/ipT8fqJ8W6h6Nv
iUqvAyt+deQnsUEwj0R8JBM4+29cfDtA5sAZiURtsmgrAgMBAAGjggF3MIIBczAM
BgNVHRMBAf8EAjAAMBEGCWCGSAGG+EIBAQQEAwIGwDAOBgNVHQ8BAf8EBAMCA/gw
KgYJYIZIAYb4QgENBB0WG0dSSUQyLUZSIHNlcnZlciBjZXJ0aWZpY2F0ZTAdBgNV
HQ4EFgQUn3VasNNuSWTVfDrMxxJ+O9eQqeswXAYDVR0jBFUwU4AUJ5ZIJ+4htvKv
sS19+vfXSCVwlZOhOKQ2MDQxCzAJBgNVBAYTAkZSMQ0wCwYDVQQKEwRDTlJTMRYw
FAYDVQQDEw1DTlJTMi1Qcm9qZXRzggEDMBkGA1UdIAQSMBAwDgYMKwYBBAHUPQEB
CAEBMCEGA1UdEQQaMBiBFmdyaWQuYWRtaW5AY2MuaW4ycDMuZnIwQQYDVR0fBDow
ODA2oDSgMoYwaHR0cDovL2NybHMuc2VydmljZXMuY25ycy5mci9HUklEMi1GUi9n
ZXRkZXIuY3JsMBYGCCsGAQQBu2IBBAp1bmljb3JlTkpTMA0GCSqGSIb3DQEBBQUA
A4IBAQAsJt+DNs1/B0SdpDfXvXvS0U/HdKIos9h6bG4ILpewhqgXguTCAArv4/vh
38u+ltfUHLq7nY6VBcLJYQCJMcGco8JxUeAdaTvdcl28TN/hkFPC30LJsDXv3WOX
DkMz80jfsNvFAONQlQypziD4uAPGHKWiF6ZvXGTo6uzc1WRVlXvg0x3psLbGohBb
cBQTkFhI3P5wRY3W1Kis5sEZ6TYIWQddSu3h77TEsR6+gw64UQv9Z1zRK58yQR6k
y2FXKEyNuWzCoqX+ofvdRRTJ8w1iJwVPQxfCoA6XjAWe7kKIpwg7WEo7JdoO/IHn
N3MfUsO8N+zL5fSrsHO6NcvTzRRS
-----END CERTIFICATE-----
