Certificate:
    Data:
        Version: 3 (0x2)
        Serial Number:
            74:19:50:67:00:02:00:00:53:a7
        Signature Algorithm: sha1WithRSAEncryption
        Issuer: DC=ch, DC=cern, CN=CERN Trusted Certification Authority
        Validity
            Not Before: Jan 18 12:42:09 2010 GMT
            Not After : Jan 18 12:42:09 2011 GMT
        Subject: DC=ch, DC=cern, OU=computers, CN=lcg-voms.cern.ch
        Subject Public Key Info:
            Public Key Algorithm: rsaEncryption
            RSA Public Key: (2048 bit)
                Modulus (2048 bit):
                    00:d5:52:dd:66:58:fc:e2:e9:b4:2f:a1:22:27:93:
                    5f:da:be:05:bd:ce:8e:02:fa:d1:a6:78:49:d9:3b:
                    5b:bb:7b:66:e3:0c:ca:2a:57:27:63:c1:e1:15:59:
                    ef:43:6e:91:6b:b2:3a:24:c1:c0:6a:10:69:85:d9:
                    0b:83:fa:89:32:b1:fe:64:33:25:9e:69:94:5f:a4:
                    2a:d1:4f:2d:26:39:9e:a0:8b:93:6f:f3:b1:be:21:
                    54:f4:11:10:60:fc:55:37:49:4a:fc:cd:93:6e:85:
                    bc:f7:ab:cd:df:4b:c7:14:64:af:8b:d1:d1:37:a5:
                    b8:4b:09:3d:52:0c:f3:b0:2f:ae:fa:23:10:95:ca:
                    cb:a0:ca:2c:72:f7:e2:41:e3:20:3a:cf:fc:6b:d2:
                    6a:b1:0d:8c:2b:08:49:99:56:e5:34:a2:45:51:57:
                    05:27:e4:ff:00:36:14:dc:50:5e:86:a2:db:94:e8:
                    b5:4d:23:55:76:3b:8b:6f:c7:4b:df:7e:29:43:84:
                    01:e1:97:fd:06:c6:7b:65:6b:25:f0:0a:1f:71:10:
                    83:3b:ae:48:b7:5b:32:54:79:6c:d0:40:b9:d8:d7:
                    74:c1:e0:eb:c4:e5:98:12:46:5e:11:4e:c7:92:42:
                    6b:df:e3:b7:ab:eb:0c:6a:1b:74:c4:fb:a8:42:16:
                    ca:0b
                Exponent: 65537 (0x10001)
        X509v3 extensions:
            X509v3 Subject Key Identifier: 
                45:B4:E1:7B:8A:AF:15:6A:CA:E9:CA:1C:87:7C:60:A4:40:6A:0C:24
            X509v3 Authority Key Identifier: 
                keyid:98:CC:92:D0:46:30:36:8C:B0:ED:98:0D:72:51:A9:47:4C:DD:BE:21

            X509v3 CRL Distribution Points: 
                URI:http://ca.cern.ch/ca/crl/CERN%20Trusted%20Certification%20Authority.crl
                URI:ldap:///CN=CERN%20Trusted%20Certification%20Authority,CN=cernpki01,CN=CDP,CN=Public%20Key%20Services,CN=Services,CN=Configuration,DC=cern,DC=ch?certificateRevocationList?base?objectClass=cRLDistributionPoint

            Authority Information Access: 
                CA Issuers - URI:http://ca.cern.ch/ca/crl/cernpki01.cern.ch_CERN%20Trusted%20Certification%20Authority(2).crt
                CA Issuers - URI:ldap:///CN=CERN%20Trusted%20Certification%20Authority,CN=AIA,CN=Public%20Key%20Services,CN=Services,CN=Configuration,DC=cern,DC=ch?cACertificate?base?objectClass=certificationAuthority

            X509v3 Basic Constraints: critical
                CA:FALSE
            X509v3 Key Usage: critical
                Digital Signature, Key Encipherment
            1.3.6.1.4.1.311.21.7: 
                0..&+.....7............+...7...b....P...[..d...
            X509v3 Extended Key Usage: 
                TLS Web Client Authentication, TLS Web Server Authentication
            X509v3 Certificate Policies: 
                Policy: 1.3.6.1.4.1.311.21.8.7301129.5981837.14370219.3652279.10496098.30.7016658.9890337

            1.3.6.1.4.1.311.21.10: 
                0.0
..+.......0
..+.......
    Signature Algorithm: sha1WithRSAEncryption
        92:83:eb:1d:d7:54:23:81:f5:64:87:44:ed:22:b7:05:c5:cf:
        38:f2:cf:24:40:d5:8b:45:ae:cd:9f:fc:97:9d:b3:d7:6c:7c:
        43:fb:08:57:f9:00:ee:de:c9:19:d5:44:a6:84:0f:14:c7:23:
        d2:28:40:58:0f:01:09:36:f9:dc:c5:8c:3c:3c:80:8a:4f:b5:
        ae:37:33:cb:d5:ec:b0:52:5d:13:86:f1:86:06:de:48:bc:e8:
        aa:c9:15:84:87:83:79:ee:e0:66:9e:d7:36:84:3d:bf:53:ea:
        5a:c2:0f:f7:12:3d:34:37:c8:0e:38:f5:60:38:ba:63:45:df:
        bd:89:65:83:c0:2a:d5:b0:46:b1:df:1f:64:1f:93:7f:4f:64:
        18:2e:e2:b3:8e:3f:33:2c:00:d0:f1:a9:e7:14:82:ca:7b:a0:
        7c:47:28:7b:26:bd:bb:1d:2a:1c:88:44:9b:9f:22:6b:4c:c3:
        98:a6:ca:46:e9:2a:f3:b5:25:5e:03:7b:a6:a9:fe:ad:dc:96:
        ee:39:0b:32:b7:c9:5a:1a:a5:cc:46:7c:c6:01:25:1e:20:94:
        6c:85:df:96:48:31:2a:87:57:80:e7:71:90:74:c8:d7:c3:84:
        2e:1b:e1:78:08:b5:e3:c9:01:bc:5f:6b:da:e2:f2:c7:36:25:
        4e:d3:d1:80
-----BEGIN CERTIFICATE-----
MIIG1jCCBb6gAwIBAgIKdBlQZwACAABTpzANBgkqhkiG9w0BAQUFADBZMRIwEAYK
CZImiZPyLGQBGRYCY2gxFDASBgoJkiaJk/IsZAEZFgRjZXJuMS0wKwYDVQQDEyRD
RVJOIFRydXN0ZWQgQ2VydGlmaWNhdGlvbiBBdXRob3JpdHkwHhcNMTAwMTE4MTI0
MjA5WhcNMTEwMTE4MTI0MjA5WjBZMRIwEAYKCZImiZPyLGQBGRYCY2gxFDASBgoJ
kiaJk/IsZAEZFgRjZXJuMRIwEAYDVQQLEwljb21wdXRlcnMxGTAXBgNVBAMTEGxj
Zy12b21zLmNlcm4uY2gwggEiMA0GCSqGSIb3DQEBAQUAA4IBDwAwggEKAoIBAQDV
Ut1mWPzi6bQvoSInk1/avgW9zo4C+tGmeEnZO1u7e2bjDMoqVydjweEVWe9DbpFr
sjokwcBqEGmF2QuD+okysf5kMyWeaZRfpCrRTy0mOZ6gi5Nv87G+IVT0ERBg/FU3
SUr8zZNuhbz3q83fS8cUZK+L0dE3pbhLCT1SDPOwL676IxCVysugyixy9+JB4yA6
z/xr0mqxDYwrCEmZVuU0okVRVwUn5P8ANhTcUF6GotuU6LVNI1V2O4tvx0vffilD
hAHhl/0GxntlayXwCh9xEIM7rki3WzJUeWzQQLnY13TB4OvE5ZgSRl4RTseSQmvf
47er6wxqG3TE+6hCFsoLAgMBAAGjggOeMIIDmjAdBgNVHQ4EFgQURbThe4qvFWrK
6coch3xgpEBqDCQwHwYDVR0jBBgwFoAUmMyS0EYwNoyw7ZgNclGpR0zdviEwggE0
BgNVHR8EggErMIIBJzCCASOgggEfoIIBG4ZHaHR0cDovL2NhLmNlcm4uY2gvY2Ev
Y3JsL0NFUk4lMjBUcnVzdGVkJTIwQ2VydGlmaWNhdGlvbiUyMEF1dGhvcml0eS5j
cmyGgc9sZGFwOi8vL0NOPUNFUk4lMjBUcnVzdGVkJTIwQ2VydGlmaWNhdGlvbiUy
MEF1dGhvcml0eSxDTj1jZXJucGtpMDEsQ049Q0RQLENOPVB1YmxpYyUyMEtleSUy
MFNlcnZpY2VzLENOPVNlcnZpY2VzLENOPUNvbmZpZ3VyYXRpb24sREM9Y2VybixE
Qz1jaD9jZXJ0aWZpY2F0ZVJldm9jYXRpb25MaXN0P2Jhc2U/b2JqZWN0Q2xhc3M9
Y1JMRGlzdHJpYnV0aW9uUG9pbnQwggFEBggrBgEFBQcBAQSCATYwggEyMGgGCCsG
AQUFBzAChlxodHRwOi8vY2EuY2Vybi5jaC9jYS9jcmwvY2VybnBraTAxLmNlcm4u
Y2hfQ0VSTiUyMFRydXN0ZWQlMjBDZXJ0aWZpY2F0aW9uJTIwQXV0aG9yaXR5KDIp
LmNydDCBxQYIKwYBBQUHMAKGgbhsZGFwOi8vL0NOPUNFUk4lMjBUcnVzdGVkJTIw
Q2VydGlmaWNhdGlvbiUyMEF1dGhvcml0eSxDTj1BSUEsQ049UHVibGljJTIwS2V5
JTIwU2VydmljZXMsQ049U2VydmljZXMsQ049Q29uZmlndXJhdGlvbixEQz1jZXJu
LERDPWNoP2NBQ2VydGlmaWNhdGU/YmFzZT9vYmplY3RDbGFzcz1jZXJ0aWZpY2F0
aW9uQXV0aG9yaXR5MAwGA1UdEwEB/wQCMAAwDgYDVR0PAQH/BAQDAgWgMD0GCSsG
AQQBgjcVBwQwMC4GJisGAQQBgjcVCIO90AmC7Y0Nhu2LK4He9TeFgNBiHobSzFCB
2fNbAgFkAgEJMB0GA1UdJQQWMBQGCCsGAQUFBwMCBggrBgEFBQcDATAzBgNVHSAE
LDAqMCgGJisGAQQBgjcVCIO90AmC7Y0Nhu2LK4He9TeFgNBiHoOsoVKE29QhMCcG
CSsGAQQBgjcVCgQaMBgwCgYIKwYBBQUHAwIwCgYIKwYBBQUHAwEwDQYJKoZIhvcN
AQEFBQADggEBAJKD6x3XVCOB9WSHRO0itwXFzzjyzyRA1YtFrs2f/Jeds9dsfEP7
CFf5AO7eyRnVRKaEDxTHI9IoQFgPAQk2+dzFjDw8gIpPta43M8vV7LBSXROG8YYG
3ki86KrJFYSHg3nu4Gae1zaEPb9T6lrCD/cSPTQ3yA449WA4umNF372JZYPAKtWw
RrHfH2Qfk39PZBgu4rOOPzMsANDxqecUgsp7oHxHKHsmvbsdKhyIRJufImtMw5im
ykbpKvO1JV4De6ap/q3clu45CzK3yVoapcxGfMYBJR4glGyF35ZIMSqHV4DncZB0
yNfDhC4b4XgItePJAbxfa9ri8sc2JU7T0YA=
-----END CERTIFICATE-----
