Certificate:
    Data:
        Version: 3 (0x2)
        Serial Number:
            1a:0b:ba:a8:00:02:00:00:35:3f
        Signature Algorithm: sha1WithRSAEncryption
        Issuer: DC=ch, DC=cern, CN=CERN Trusted Certification Authority
        Validity
            Not Before: Mar  3 08:32:21 2009 GMT
            Not After : Mar  3 08:32:21 2010 GMT
        Subject: DC=ch, DC=cern, OU=computers, CN=lcg-voms.cern.ch
        Subject Public Key Info:
            Public Key Algorithm: rsaEncryption
            RSA Public Key: (1024 bit)
                Modulus (1024 bit):
                    00:9a:b0:73:ce:75:aa:58:89:21:a2:21:6e:11:fb:
                    d5:72:e0:2a:f4:86:e2:01:b7:67:cf:56:a7:31:ff:
                    cb:80:66:c8:69:09:8a:93:d2:e7:f3:16:13:79:91:
                    97:a9:db:13:b7:8d:06:7b:48:3f:a5:48:a8:f1:76:
                    80:8a:4d:69:af:48:cf:62:fa:41:9f:70:6f:53:31:
                    b3:c2:89:43:eb:56:f3:c7:29:0f:2d:0c:34:6f:ae:
                    54:36:20:26:6f:df:95:50:2c:f2:46:67:f0:3c:1b:
                    f9:b3:4a:6f:f7:61:2e:b2:28:e5:d0:c9:69:15:00:
                    5e:88:54:5a:02:63:6a:b7:35
                Exponent: 65537 (0x10001)
        X509v3 extensions:
            X509v3 Subject Key Identifier: 
                0E:FF:2A:D1:73:A5:7C:CC:02:4B:16:05:85:1A:B0:8D:EB:95:8C:E4
            X509v3 Authority Key Identifier: 
                keyid:98:CC:92:D0:46:30:36:8C:B0:ED:98:0D:72:51:A9:47:4C:DD:BE:21

            X509v3 CRL Distribution Points: 
                URI:http://ca.cern.ch/ca/crl/CERN%20Trusted%20Certification%20Authority.crl
                URI:ldap:///CN=CERN%20Trusted%20Certification%20Authority,CN=cernpki01,CN=CDP,CN=Public%20Key%20Services,CN=Services,CN=Configuration,DC=cern,DC=ch?certificateRevocationList?base?objectClass=cRLDistributionPoint

            Authority Information Access: 
                CA Issuers - URI:http://ca.cern.ch/ca/crl/cernpki01.cern.ch_CERN%20Trusted%20Certification%20Authority(2).crt
                CA Issuers - URI:ldap:///CN=CERN%20Trusted%20Certification%20Authority,CN=AIA,CN=Public%20Key%20Services,CN=Services,CN=Configuration,DC=cern,DC=ch?cACertificate?base?objectClass=certificationAuthority

            X509v3 Basic Constraints: critical
                CA:FALSE
            X509v3 Key Usage: critical
                Digital Signature, Key Encipherment
            1.3.6.1.4.1.311.21.7: 
                0..&+.....7............+...7...b....P...[..d...
            X509v3 Extended Key Usage: 
                TLS Web Client Authentication, TLS Web Server Authentication
            1.3.6.1.4.1.311.21.10: 
                0.0
..+.......0
..+.......
            X509v3 Subject Alternative Name: 
                DNS:lcg-voms.cern.ch
    Signature Algorithm: sha1WithRSAEncryption
        a0:79:20:2c:e9:7c:f1:2d:d1:fa:53:f9:9b:cf:ad:b2:91:c6:
        f2:71:86:ea:57:5c:47:40:98:d5:ed:c2:ad:a6:32:8c:8e:af:
        72:0f:e4:4c:f2:8c:6a:a2:16:16:68:89:05:d1:82:b5:89:d6:
        3e:43:5f:98:ea:02:c9:75:27:0c:47:26:9e:f5:73:04:fd:2a:
        fb:92:15:b3:5f:65:27:7d:7c:ba:0f:eb:cf:97:99:83:e8:a7:
        2a:ba:cc:ab:fa:73:bc:25:cf:90:99:04:15:ce:71:f1:f7:c5:
        b6:7d:92:dc:7f:60:af:c7:5a:c5:5a:0a:b6:67:f3:d7:09:9d:
        2a:3b:dc:a1:09:e1:49:bd:71:c9:e3:3a:76:95:5a:60:a7:d1:
        df:45:35:06:65:90:8b:39:1d:39:2b:d3:10:28:9b:b5:c1:1b:
        8c:b2:55:bb:38:4e:89:c6:66:03:96:e6:87:c6:7a:08:4b:e9:
        25:79:b3:f6:00:96:2a:cb:72:52:72:05:12:74:bb:e8:53:d0:
        ac:95:2c:f5:98:76:2d:b7:09:d4:d5:33:4a:ca:15:06:a3:03:
        f6:46:c9:5d:80:ff:fe:0d:cb:ef:40:29:02:ee:7c:e8:b2:c0:
        36:b5:9c:3d:03:1a:fa:b2:1f:63:d5:f6:7e:87:ef:62:0b:e6:
        43:a9:2a:77
-----BEGIN CERTIFICATE-----
MIIGOjCCBSKgAwIBAgIKGgu6qAACAAA1PzANBgkqhkiG9w0BAQUFADBZMRIwEAYK
CZImiZPyLGQBGRYCY2gxFDASBgoJkiaJk/IsZAEZFgRjZXJuMS0wKwYDVQQDEyRD
RVJOIFRydXN0ZWQgQ2VydGlmaWNhdGlvbiBBdXRob3JpdHkwHhcNMDkwMzAzMDgz
MjIxWhcNMTAwMzAzMDgzMjIxWjBZMRIwEAYKCZImiZPyLGQBGRYCY2gxFDASBgoJ
kiaJk/IsZAEZFgRjZXJuMRIwEAYDVQQLEwljb21wdXRlcnMxGTAXBgNVBAMTEGxj
Zy12b21zLmNlcm4uY2gwgZ8wDQYJKoZIhvcNAQEBBQADgY0AMIGJAoGBAJqwc851
qliJIaIhbhH71XLgKvSG4gG3Z89WpzH/y4BmyGkJipPS5/MWE3mRl6nbE7eNBntI
P6VIqPF2gIpNaa9Iz2L6QZ9wb1Mxs8KJQ+tW88cpDy0MNG+uVDYgJm/flVAs8kZn
8Dwb+bNKb/dhLrIo5dDJaRUAXohUWgJjarc1AgMBAAGjggOGMIIDgjAdBgNVHQ4E
FgQUDv8q0XOlfMwCSxYFhRqwjeuVjOQwHwYDVR0jBBgwFoAUmMyS0EYwNoyw7ZgN
clGpR0zdviEwggE0BgNVHR8EggErMIIBJzCCASOgggEfoIIBG4ZHaHR0cDovL2Nh
LmNlcm4uY2gvY2EvY3JsL0NFUk4lMjBUcnVzdGVkJTIwQ2VydGlmaWNhdGlvbiUy
MEF1dGhvcml0eS5jcmyGgc9sZGFwOi8vL0NOPUNFUk4lMjBUcnVzdGVkJTIwQ2Vy
dGlmaWNhdGlvbiUyMEF1dGhvcml0eSxDTj1jZXJucGtpMDEsQ049Q0RQLENOPVB1
YmxpYyUyMEtleSUyMFNlcnZpY2VzLENOPVNlcnZpY2VzLENOPUNvbmZpZ3VyYXRp
b24sREM9Y2VybixEQz1jaD9jZXJ0aWZpY2F0ZVJldm9jYXRpb25MaXN0P2Jhc2U/
b2JqZWN0Q2xhc3M9Y1JMRGlzdHJpYnV0aW9uUG9pbnQwggFEBggrBgEFBQcBAQSC
ATYwggEyMGgGCCsGAQUFBzAChlxodHRwOi8vY2EuY2Vybi5jaC9jYS9jcmwvY2Vy
bnBraTAxLmNlcm4uY2hfQ0VSTiUyMFRydXN0ZWQlMjBDZXJ0aWZpY2F0aW9uJTIw
QXV0aG9yaXR5KDIpLmNydDCBxQYIKwYBBQUHMAKGgbhsZGFwOi8vL0NOPUNFUk4l
MjBUcnVzdGVkJTIwQ2VydGlmaWNhdGlvbiUyMEF1dGhvcml0eSxDTj1BSUEsQ049
UHVibGljJTIwS2V5JTIwU2VydmljZXMsQ049U2VydmljZXMsQ049Q29uZmlndXJh
dGlvbixEQz1jZXJuLERDPWNoP2NBQ2VydGlmaWNhdGU/YmFzZT9vYmplY3RDbGFz
cz1jZXJ0aWZpY2F0aW9uQXV0aG9yaXR5MAwGA1UdEwEB/wQCMAAwDgYDVR0PAQH/
BAQDAgWgMD0GCSsGAQQBgjcVBwQwMC4GJisGAQQBgjcVCIO90AmC7Y0Nhu2LK4He
9TeFgNBiHobSzFCB2fNbAgFkAgEGMB0GA1UdJQQWMBQGCCsGAQUFBwMCBggrBgEF
BQcDATAnBgkrBgEEAYI3FQoEGjAYMAoGCCsGAQUFBwMCMAoGCCsGAQUFBwMBMBsG
A1UdEQQUMBKCEGxjZy12b21zLmNlcm4uY2gwDQYJKoZIhvcNAQEFBQADggEBAKB5
ICzpfPEt0fpT+ZvPrbKRxvJxhupXXEdAmNXtwq2mMoyOr3IP5EzyjGqiFhZoiQXR
grWJ1j5DX5jqAsl1JwxHJp71cwT9KvuSFbNfZSd9fLoP68+XmYPopyq6zKv6c7wl
z5CZBBXOcfH3xbZ9ktx/YK/HWsVaCrZn89cJnSo73KEJ4Um9ccnjOnaVWmCn0d9F
NQZlkIs5HTkr0xAom7XBG4yyVbs4TonGZgOW5ofGeghL6SV5s/YAlirLclJyBRJ0
u+hT0KyVLPWYdi23CdTVM0rKFQajA/ZGyV2A//4Ny+9AKQLufOiywDa1nD0DGvqy
H2PV9n6H72IL5kOpKnc=
-----END CERTIFICATE-----
