Certificate:
    Data:
        Version: 3 (0x2)
        Serial Number: 30105 (0x7599)
        Signature Algorithm: sha1WithRSAEncryption
        Issuer: DC=org, DC=DOEGrids, OU=Certificate Authorities, CN=DOEGrids CA 1
        Validity
            Not Before: Jan 16 15:43:21 2009 GMT
            Not After : Jan 16 15:43:21 2010 GMT
        Subject: DC=org, DC=doegrids, OU=Services, CN=vo.racf.bnl.gov
        Subject Public Key Info:
            Public Key Algorithm: rsaEncryption
            RSA Public Key: (2048 bit)
                Modulus (2048 bit):
                    00:af:f3:60:01:ab:ca:f2:b1:11:0d:98:1f:b2:5e:
                    0e:e3:f0:28:dd:95:c3:28:47:22:bf:4a:28:bb:f2:
                    66:f2:bc:13:77:0a:3d:ea:f9:02:16:da:1d:39:1b:
                    6a:24:a6:4d:e7:16:f1:76:3f:01:cb:06:12:95:9d:
                    38:0c:f6:a7:e0:da:b8:5e:88:3c:37:fd:c2:85:49:
                    9d:e7:21:25:ea:94:c2:c5:40:5f:51:58:e9:fe:01:
                    3f:d9:34:cb:98:18:53:fd:ef:14:98:ce:bb:c6:36:
                    4e:b8:6a:9e:d2:59:d3:fc:0b:db:69:c3:95:99:19:
                    a9:2d:8b:09:c9:e2:2e:36:71:ee:02:86:80:36:6b:
                    2b:58:5e:a4:3d:2d:34:6a:af:67:3b:3b:da:1e:58:
                    02:d7:90:ac:6f:97:97:3f:46:6d:4a:1f:cb:34:32:
                    a2:4c:1b:36:3e:3f:ee:11:f3:38:f1:97:62:e3:5a:
                    d7:1e:e2:9a:bd:09:7b:20:73:ff:af:90:65:d6:83:
                    88:8f:b1:73:bf:7d:98:07:cf:1c:5e:45:4a:af:8d:
                    68:89:a3:64:21:bd:ae:45:47:7a:62:0a:46:a3:59:
                    3e:a6:42:e2:0f:fd:18:73:35:2a:2c:cc:01:f8:3f:
                    83:c3:84:6c:c9:87:93:c2:8d:50:69:54:29:6a:54:
                    b1:e3
                Exponent: 65537 (0x10001)
        X509v3 extensions:
            Netscape Cert Type: 
                SSL Client, SSL Server, S/MIME
            X509v3 Key Usage: critical
                Digital Signature, Non Repudiation, Key Encipherment, Data Encipherment
            X509v3 Certificate Policies: 
                Policy: 1.2.840.113612.3.7.1.2.10

            X509v3 CRL Distribution Points: 
                URI:http://pki1.doegrids.org/CRL/1c3f2ca8.crl

            X509v3 Subject Alternative Name: 
                DNS:vo.racf.bnl.gov, email:jhover@bnl.gov
            X509v3 Authority Key Identifier: 
                keyid:CA:19:1D:12:8E:6E:A4:38:5D:42:D4:31:0E:08:DB:D9:8D:17:0D:5D

    Signature Algorithm: sha1WithRSAEncryption
        a6:c4:80:65:77:5d:dc:f3:37:a5:cf:46:2c:45:c3:79:59:b9:
        02:fb:f3:15:fd:22:47:51:3b:fb:cd:34:5a:b6:a4:b7:9a:90:
        d0:2f:8a:a4:b4:83:9e:32:a2:8a:fc:3e:7b:c1:23:13:d4:ef:
        c9:c0:6c:d3:a8:e1:27:b9:c0:f1:3d:d8:26:e2:23:7a:de:40:
        62:d4:98:05:90:bf:2d:5f:28:a7:7f:da:2e:53:d4:b1:32:b0:
        30:34:9d:c8:c5:a7:dc:0b:bc:6b:d4:75:25:8e:f1:48:2d:56:
        99:47:27:e7:17:57:48:65:fd:e5:47:59:f4:4a:7c:9b:22:78:
        ea:7f:94:75:24:b3:e9:b3:5e:14:22:70:38:62:27:a7:88:b7:
        08:8c:51:a0:36:b2:9f:7e:51:d4:5e:ac:95:74:2f:a9:84:41:
        5f:a3:61:79:b4:89:34:ab:10:43:b3:d6:45:71:83:63:bc:5f:
        5f:6f:3a:d9:c5:f6:5f:01:ea:27:f3:0f:06:11:86:e4:d4:c8:
        bb:e3:96:04:1c:36:b9:b8:2b:5c:c5:5c:98:fe:5c:74:d3:ba:
        76:5a:2a:cf:35:dc:68:79:85:2f:e8:35:9a:a7:78:c0:46:12:
        d0:9a:4e:a2:45:a4:cf:f7:15:3f:bf:02:d2:b7:67:0c:2b:ec:
        94:24:47:e1
-----BEGIN CERTIFICATE-----
MIIECzCCAvOgAwIBAgICdZkwDQYJKoZIhvcNAQEFBQAwaTETMBEGCgmSJomT8ixk
ARkWA29yZzEYMBYGCgmSJomT8ixkARkWCERPRUdyaWRzMSAwHgYDVQQLExdDZXJ0
aWZpY2F0ZSBBdXRob3JpdGllczEWMBQGA1UEAxMNRE9FR3JpZHMgQ0EgMTAeFw0w
OTAxMTYxNTQzMjFaFw0xMDAxMTYxNTQzMjFaMFwxEzARBgoJkiaJk/IsZAEZFgNv
cmcxGDAWBgoJkiaJk/IsZAEZFghkb2VncmlkczERMA8GA1UECxMIU2VydmljZXMx
GDAWBgNVBAMTD3ZvLnJhY2YuYm5sLmdvdjCCASIwDQYJKoZIhvcNAQEBBQADggEP
ADCCAQoCggEBAK/zYAGryvKxEQ2YH7JeDuPwKN2VwyhHIr9KKLvyZvK8E3cKPer5
AhbaHTkbaiSmTecW8XY/AcsGEpWdOAz2p+DauF6IPDf9woVJnechJeqUwsVAX1FY
6f4BP9k0y5gYU/3vFJjOu8Y2TrhqntJZ0/wL22nDlZkZqS2LCcniLjZx7gKGgDZr
K1hepD0tNGqvZzs72h5YAteQrG+Xlz9GbUofyzQyokwbNj4/7hHzOPGXYuNa1x7i
mr0JeyBz/6+QZdaDiI+xc799mAfPHF5FSq+NaImjZCG9rkVHemIKRqNZPqZC4g/9
GHM1KizMAfg/g8OEbMmHk8KNUGlUKWpUseMCAwEAAaOByTCBxjARBglghkgBhvhC
AQEEBAMCBeAwDgYDVR0PAQH/BAQDAgTwMBgGA1UdIAQRMA8wDQYLKoZIhvdMAwcB
AgowOgYDVR0fBDMwMTAvoC2gK4YpaHR0cDovL3BraTEuZG9lZ3JpZHMub3JnL0NS
TC8xYzNmMmNhOC5jcmwwKgYDVR0RBCMwIYIPdm8ucmFjZi5ibmwuZ292gQ5qaG92
ZXJAYm5sLmdvdjAfBgNVHSMEGDAWgBTKGR0Sjm6kOF1C1DEOCNvZjRcNXTANBgkq
hkiG9w0BAQUFAAOCAQEApsSAZXdd3PM3pc9GLEXDeVm5AvvzFf0iR1E7+800Wrak
t5qQ0C+KpLSDnjKiivw+e8EjE9TvycBs06jhJ7nA8T3YJuIjet5AYtSYBZC/LV8o
p3/aLlPUsTKwMDSdyMWn3Au8a9R1JY7xSC1WmUcn5xdXSGX95UdZ9Ep8myJ46n+U
dSSz6bNeFCJwOGInp4i3CIxRoDayn35R1F6slXQvqYRBX6NhebSJNKsQQ7PWRXGD
Y7xfX2862cX2XwHqJ/MPBhGG5NTIu+OWBBw2ubgrXMVcmP5cdNO6dloqzzXcaHmF
L+g1mqd4wEYS0JpOokWkz/cVP78C0rdnDCvslCRH4Q==
-----END CERTIFICATE-----
