Certificate:
    Data:
        Version: 3 (0x2)
        Serial Number: 40260 (0x9d44)
        Signature Algorithm: sha1WithRSAEncryption
        Issuer: DC=org, DC=DOEGrids, OU=Certificate Authorities, CN=DOEGrids CA 1
        Validity
            Not Before: Dec 10 22:33:53 2009 GMT
            Not After : Dec 10 22:33:53 2010 GMT
        Subject: DC=org, DC=doegrids, OU=Services, CN=vo.racf.bnl.gov
        Subject Public Key Info:
            Public Key Algorithm: rsaEncryption
            RSA Public Key: (2048 bit)
                Modulus (2048 bit):
                    00:96:c2:a4:6f:95:c1:08:f1:73:5f:23:86:be:a5:
                    e6:14:81:fe:74:83:e9:0c:31:c6:d2:dc:69:2e:21:
                    6b:f6:38:52:cc:3f:3e:ba:5f:bd:32:c0:a5:d9:8d:
                    fb:b8:bf:ac:03:59:fa:35:bf:bc:66:f5:0c:ff:37:
                    ae:45:f2:4f:eb:c4:fc:12:93:33:d9:f7:0b:35:80:
                    68:71:31:4b:2b:f0:3e:56:bd:4e:a5:fe:9c:34:20:
                    f3:d1:72:01:5d:78:b1:48:01:db:33:f9:8e:11:60:
                    b5:a6:dd:6a:ef:fd:a5:b6:3e:62:a1:92:ce:95:a7:
                    b0:3e:12:77:21:48:90:18:ee:3d:fe:e2:e0:1e:74:
                    31:99:7a:75:af:99:19:f2:3e:2a:76:4e:e1:1d:f6:
                    97:83:18:c5:3e:8b:e1:fa:15:1f:43:32:24:1c:a2:
                    02:12:4a:88:e4:1b:97:08:b7:21:63:ce:ec:ad:76:
                    64:8c:a6:ba:bf:13:8e:b0:db:6a:a7:2c:c3:7f:05:
                    5e:ce:05:78:c6:52:4a:50:12:c9:20:cd:bb:9a:40:
                    2f:c5:b3:f4:5b:a6:e9:f8:60:b3:ba:3f:d2:fa:eb:
                    94:58:11:e6:4c:44:66:9b:fa:c3:a8:ca:bf:ef:c9:
                    1e:1b:d0:9b:92:7d:d5:d3:80:c9:98:0a:38:77:78:
                    0b:75
                Exponent: 65537 (0x10001)
        X509v3 extensions:
            Netscape Cert Type: 
                SSL Client, SSL Server, S/MIME
            X509v3 Key Usage: critical
                Digital Signature, Key Encipherment, Data Encipherment
            X509v3 CRL Distribution Points: 
                URI:http://crl.doegrids.org/1c3f2ca8/1c3f2ca8.crl

            X509v3 Subject Alternative Name: 
                DNS:vo.racf.bnl.gov, email:jhover@bnl.gov
            X509v3 Authority Key Identifier: 
                keyid:CA:19:1D:12:8E:6E:A4:38:5D:42:D4:31:0E:08:DB:D9:8D:17:0D:5D

    Signature Algorithm: sha1WithRSAEncryption
        1c:e0:db:30:73:93:84:c3:c3:c7:01:2c:e9:93:ac:59:f7:e2:
        f7:1e:a9:0d:29:29:41:4e:bb:38:e9:80:f6:df:a5:ae:7e:e2:
        eb:58:2f:84:69:60:09:88:f2:df:b1:11:fb:13:9f:23:cf:d8:
        56:6a:48:81:14:88:0f:5c:45:e6:8f:5d:7c:f1:63:dd:51:41:
        9e:4d:d7:78:3b:a2:87:cd:a3:41:be:d7:ee:f8:93:60:d9:37:
        fc:6d:9c:39:c5:a3:d5:35:05:a7:2a:35:0e:fe:c4:4f:76:55:
        dd:8b:23:37:f4:90:77:87:88:83:82:7a:4d:23:c4:c1:ca:59:
        d8:7a:56:31:8f:a4:fa:20:d9:82:73:a9:9e:f0:c1:41:de:99:
        de:72:de:83:29:2f:e0:4e:4c:53:4f:31:e6:3e:0a:6c:08:52:
        74:8c:5c:d2:eb:24:f5:8e:bb:25:c7:08:f3:e9:98:52:7e:66:
        88:03:43:cb:75:cc:b9:7c:0c:a4:88:00:bc:48:4b:b3:c2:ae:
        12:b7:1f:fc:cd:44:35:ea:36:03:d8:13:68:4c:81:3f:fd:66:
        be:f3:2f:1a:0e:fd:c8:00:14:3d:83:49:d1:8b:13:50:74:5e:
        63:3a:e5:fd:db:bf:0c:a8:19:5d:d6:0a:bd:5a:ad:bb:f5:f8:
        5b:71:96:b1
-----BEGIN CERTIFICATE-----
MIID9jCCAt6gAwIBAgIDAJ1EMA0GCSqGSIb3DQEBBQUAMGkxEzARBgoJkiaJk/Is
ZAEZFgNvcmcxGDAWBgoJkiaJk/IsZAEZFghET0VHcmlkczEgMB4GA1UECxMXQ2Vy
dGlmaWNhdGUgQXV0aG9yaXRpZXMxFjAUBgNVBAMTDURPRUdyaWRzIENBIDEwHhcN
MDkxMjEwMjIzMzUzWhcNMTAxMjEwMjIzMzUzWjBcMRMwEQYKCZImiZPyLGQBGRYD
b3JnMRgwFgYKCZImiZPyLGQBGRYIZG9lZ3JpZHMxETAPBgNVBAsTCFNlcnZpY2Vz
MRgwFgYDVQQDEw92by5yYWNmLmJubC5nb3YwggEiMA0GCSqGSIb3DQEBAQUAA4IB
DwAwggEKAoIBAQCWwqRvlcEI8XNfI4a+peYUgf50g+kMMcbS3GkuIWv2OFLMPz66
X70ywKXZjfu4v6wDWfo1v7xm9Qz/N65F8k/rxPwSkzPZ9ws1gGhxMUsr8D5WvU6l
/pw0IPPRcgFdeLFIAdsz+Y4RYLWm3Wrv/aW2PmKhks6Vp7A+EnchSJAY7j3+4uAe
dDGZenWvmRnyPip2TuEd9peDGMU+i+H6FR9DMiQcogISSojkG5cItyFjzuytdmSM
prq/E46w22qnLMN/BV7OBXjGUkpQEskgzbuaQC/Fs/Rbpun4YLO6P9L665RYEeZM
RGab+sOoyr/vyR4b0JuSfdXTgMmYCjh3eAt1AgMBAAGjgbMwgbAwEQYJYIZIAYb4
QgEBBAQDAgXgMA4GA1UdDwEB/wQEAwIEsDA+BgNVHR8ENzA1MDOgMaAvhi1odHRw
Oi8vY3JsLmRvZWdyaWRzLm9yZy8xYzNmMmNhOC8xYzNmMmNhOC5jcmwwKgYDVR0R
BCMwIYIPdm8ucmFjZi5ibmwuZ292gQ5qaG92ZXJAYm5sLmdvdjAfBgNVHSMEGDAW
gBTKGR0Sjm6kOF1C1DEOCNvZjRcNXTANBgkqhkiG9w0BAQUFAAOCAQEAHODbMHOT
hMPDxwEs6ZOsWffi9x6pDSkpQU67OOmA9t+lrn7i61gvhGlgCYjy37ER+xOfI8/Y
VmpIgRSID1xF5o9dfPFj3VFBnk3XeDuih82jQb7X7viTYNk3/G2cOcWj1TUFpyo1
Dv7ET3ZV3YsjN/SQd4eIg4J6TSPEwcpZ2HpWMY+k+iDZgnOpnvDBQd6Z3nLegykv
4E5MU08x5j4KbAhSdIxc0usk9Y67JccI8+mYUn5miANDy3XMuXwMpIgAvEhLs8Ku
Ercf/M1ENeo2A9gTaEyBP/1mvvMvGg79yAAUPYNJ0YsTUHReYzrl/du/DKgZXdYK
vVqtu/X4W3GWsQ==
-----END CERTIFICATE-----
