Certificate:
    Data:
        Version: 3 (0x2)
        Serial Number: 26705 (0x6851)
        Signature Algorithm: sha1WithRSAEncryption
        Issuer: DC=org, DC=DOEGrids, OU=Certificate Authorities, CN=DOEGrids CA 1
        Validity
            Not Before: Sep 30 16:57:53 2008 GMT
            Not After : Sep 30 16:57:53 2009 GMT
        Subject: DC=org, DC=doegrids, OU=Services, CN=http/voms.fnal.gov
        Subject Public Key Info:
            Public Key Algorithm: rsaEncryption
            RSA Public Key: (1024 bit)
                Modulus (1024 bit):
                    00:d9:19:dd:b1:78:da:dc:32:97:8a:7a:15:cc:4b:
                    15:c2:49:96:f4:5f:55:11:39:4f:95:63:76:1e:5f:
                    6f:c8:a5:a0:64:95:b6:88:6d:1b:15:20:c4:32:f0:
                    a4:78:b3:52:d2:c5:dc:3a:5f:23:dd:cc:be:c7:5a:
                    e0:54:fa:e2:ad:ee:f4:cf:65:6f:55:a4:a6:c5:cf:
                    bd:f9:69:23:f6:57:f8:ad:19:c8:d4:3b:59:48:31:
                    60:aa:5f:9d:82:2c:3b:75:16:d2:6b:13:d0:c1:65:
                    37:d4:7b:8d:99:dc:f8:95:64:06:09:a1:26:78:4d:
                    e8:08:aa:c9:ef:0f:08:5a:57
                Exponent: 65537 (0x10001)
        X509v3 extensions:
            Netscape Cert Type: 
                SSL Client, SSL Server, S/MIME
            X509v3 Key Usage: critical
                Digital Signature, Non Repudiation, Key Encipherment, Data Encipherment
            X509v3 Certificate Policies: 
                Policy: 1.2.840.113612.3.7.1.2.10

            X509v3 CRL Distribution Points: 
                URI:http://pki1.doegrids.org/CRL/1c3f2ca8.crl

            X509v3 Subject Alternative Name: 
                DNS:voms.fnal.gov, email:fermigrid-root@fnal.gov
            X509v3 Authority Key Identifier: 
                keyid:CA:19:1D:12:8E:6E:A4:38:5D:42:D4:31:0E:08:DB:D9:8D:17:0D:5D

    Signature Algorithm: sha1WithRSAEncryption
        a7:e1:c0:a1:97:a0:ab:b1:6a:16:00:84:ae:ac:73:47:16:cf:
        7a:44:4d:e2:d3:9c:da:bb:e0:0b:36:2b:29:c6:ca:f7:b2:a2:
        eb:87:7a:59:5f:e7:3b:13:7b:1d:ea:fe:3f:fa:ef:77:d9:b2:
        db:ba:5f:2c:5e:b5:55:e3:55:62:9e:45:22:87:fd:c8:cf:db:
        91:5e:a2:c7:90:a9:25:11:59:74:8d:76:c5:b9:65:ee:66:f6:
        6c:da:a0:4d:10:b9:76:50:b3:1a:9b:ba:f6:2f:8e:31:43:67:
        33:a2:42:ae:f5:ec:37:f0:e4:d8:87:bd:43:7b:0e:97:54:3f:
        0e:f7:67:57:69:66:d5:36:e7:ed:40:ab:37:5d:89:88:9e:80:
        da:5f:eb:77:24:5f:61:b6:28:47:f1:1a:e9:6f:37:d8:0d:18:
        98:fd:47:5d:44:ec:5f:19:be:56:54:8e:a9:b0:81:17:2e:8c:
        17:db:fc:d7:f9:8b:8f:38:22:65:4f:ff:4f:40:7a:b5:e5:85:
        7e:8e:75:68:04:c0:1e:3d:9e:d2:b9:d9:c5:f9:c6:39:86:a0:
        82:81:d5:2e:52:ca:9f:6d:b3:00:6b:83:0f:3a:db:02:b1:7f:
        56:fd:14:c8:92:74:be:8d:2b:a9:0c:a9:c1:fd:04:03:9a:d8:
        c0:d0:84:17
-----BEGIN CERTIFICATE-----
MIIDkTCCAnmgAwIBAgICaFEwDQYJKoZIhvcNAQEFBQAwaTETMBEGCgmSJomT8ixk
ARkWA29yZzEYMBYGCgmSJomT8ixkARkWCERPRUdyaWRzMSAwHgYDVQQLExdDZXJ0
aWZpY2F0ZSBBdXRob3JpdGllczEWMBQGA1UEAxMNRE9FR3JpZHMgQ0EgMTAeFw0w
ODA5MzAxNjU3NTNaFw0wOTA5MzAxNjU3NTNaMF8xEzARBgoJkiaJk/IsZAEZFgNv
cmcxGDAWBgoJkiaJk/IsZAEZFghkb2VncmlkczERMA8GA1UECxMIU2VydmljZXMx
GzAZBgNVBAMTEmh0dHAvdm9tcy5mbmFsLmdvdjCBnzANBgkqhkiG9w0BAQEFAAOB
jQAwgYkCgYEA2RndsXja3DKXinoVzEsVwkmW9F9VETlPlWN2Hl9vyKWgZJW2iG0b
FSDEMvCkeLNS0sXcOl8j3cy+x1rgVPrire70z2VvVaSmxc+9+Wkj9lf4rRnI1DtZ
SDFgql+dgiw7dRbSaxPQwWU31HuNmdz4lWQGCaEmeE3oCKrJ7w8IWlcCAwEAAaOB
0DCBzTARBglghkgBhvhCAQEEBAMCBeAwDgYDVR0PAQH/BAQDAgTwMBgGA1UdIAQR
MA8wDQYLKoZIhvdMAwcBAgowOgYDVR0fBDMwMTAvoC2gK4YpaHR0cDovL3BraTEu
ZG9lZ3JpZHMub3JnL0NSTC8xYzNmMmNhOC5jcmwwMQYDVR0RBCowKIINdm9tcy5m
bmFsLmdvdoEXZmVybWlncmlkLXJvb3RAZm5hbC5nb3YwHwYDVR0jBBgwFoAUyhkd
Eo5upDhdQtQxDgjb2Y0XDV0wDQYJKoZIhvcNAQEFBQADggEBAKfhwKGXoKuxahYA
hK6sc0cWz3pETeLTnNq74As2KynGyveyouuHellf5zsTex3q/j/673fZstu6Xyxe
tVXjVWKeRSKH/cjP25FeoseQqSURWXSNdsW5Ze5m9mzaoE0QuXZQsxqbuvYvjjFD
ZzOiQq717Dfw5NiHvUN7DpdUPw73Z1dpZtU25+1AqzddiYiegNpf63ckX2G2KEfx
GulvN9gNGJj9R11E7F8ZvlZUjqmwgRcujBfb/Nf5i484ImVP/09AerXlhX6OdWgE
wB49ntK52cX5xjmGoIKB1S5Syp9tswBrgw862wKxf1b9FMiSdL6NK6kMqcH9BAOa
2MDQhBc=
-----END CERTIFICATE-----
