Certificate:
    Data:
        Version: 3 (0x2)
        Serial Number:
            20:54:2f:2f:00:02:00:00:41:bf
        Signature Algorithm: sha1WithRSAEncryption
        Issuer: DC=ch, DC=cern, CN=CERN Trusted Certification Authority
        Validity
            Not Before: Jun 22 14:44:20 2009 GMT
            Not After : Jun 22 14:44:20 2010 GMT
        Subject: DC=ch, DC=cern, OU=computers, CN=voms.cern.ch
        Subject Public Key Info:
            Public Key Algorithm: rsaEncryption
            RSA Public Key: (2048 bit)
                Modulus (2048 bit):
                    00:d3:97:2a:06:e3:2b:ae:0c:13:d4:ea:9e:5b:3b:
                    fd:cf:bc:0e:97:ce:eb:94:29:55:47:f1:cd:a6:7c:
                    10:ed:3d:d5:92:4d:75:9b:d8:5e:34:3b:5b:84:c2:
                    b6:29:c2:43:c2:5b:2c:5d:98:da:54:ec:b5:58:e4:
                    21:4b:e4:97:46:35:a8:22:ac:70:7f:8b:94:80:83:
                    6e:e5:f7:cd:8d:f1:d1:d0:3a:cc:06:f7:ca:7e:e8:
                    aa:01:0f:07:32:dc:a5:79:c4:64:85:ce:c8:3b:62:
                    d4:00:5f:88:fc:e3:60:0c:77:f4:57:64:3d:b2:ca:
                    cd:79:e6:04:e7:91:c0:5c:17:a6:5d:1a:a2:49:61:
                    e9:39:54:28:3c:70:ef:be:14:65:50:67:46:32:4b:
                    27:8e:f3:b1:4d:e9:01:48:63:48:e7:16:81:94:d2:
                    97:6b:c7:0e:9a:21:f6:d8:6b:4a:fb:c3:e8:a6:51:
                    2b:63:14:85:7f:33:a4:e8:9a:72:ef:e2:16:f5:58:
                    b6:da:46:ee:8f:2f:01:45:e3:a6:78:5e:a2:5b:d1:
                    09:c3:92:95:e5:19:ca:76:8f:c2:1b:7c:43:b3:19:
                    2b:41:6b:c4:be:b5:c7:88:d6:95:25:d5:d1:16:f8:
                    68:85:65:f5:30:e3:4f:79:0d:e5:3c:f1:79:eb:d9:
                    d0:9d
                Exponent: 65537 (0x10001)
        X509v3 extensions:
            X509v3 Subject Key Identifier: 
                66:C8:4D:B6:1B:A4:1B:88:E3:76:3E:2C:A3:C2:4E:C3:BD:6A:A6:88
            X509v3 Authority Key Identifier: 
                keyid:98:CC:92:D0:46:30:36:8C:B0:ED:98:0D:72:51:A9:47:4C:DD:BE:21

            X509v3 CRL Distribution Points: 
                URI:http://ca.cern.ch/ca/crl/CERN%20Trusted%20Certification%20Authority.crl
                URI:ldap:///CN=CERN%20Trusted%20Certification%20Authority,CN=cernpki01,CN=CDP,CN=Public%20Key%20Services,CN=Services,CN=Configuration,DC=cern,DC=ch?certificateRevocationList?base?objectClass=cRLDistributionPoint

            Authority Information Access: 
                CA Issuers - URI:http://ca.cern.ch/ca/crl/cernpki01.cern.ch_CERN%20Trusted%20Certification%20Authority(2).crt
                CA Issuers - URI:ldap:///CN=CERN%20Trusted%20Certification%20Authority,CN=AIA,CN=Public%20Key%20Services,CN=Services,CN=Configuration,DC=cern,DC=ch?cACertificate?base?objectClass=certificationAuthority

            X509v3 Basic Constraints: critical
                CA:FALSE
            X509v3 Key Usage: critical
                Digital Signature, Key Encipherment
            1.3.6.1.4.1.311.21.7: 
                0..&+.....7............+...7...b....P...[..d...
            X509v3 Extended Key Usage: 
                TLS Web Client Authentication, TLS Web Server Authentication
            1.3.6.1.4.1.311.21.10: 
                0.0
..+.......0
..+.......
    Signature Algorithm: sha1WithRSAEncryption
        b7:76:5d:0d:23:2c:92:18:ba:02:7e:9d:f4:d0:73:53:cd:b9:
        28:e7:c9:38:bf:92:38:12:1e:31:bf:39:14:a3:07:b1:8f:75:
        21:e8:90:ad:4d:3a:32:ab:d9:42:ec:4f:46:f9:07:05:ab:d7:
        77:fe:ce:41:ef:cb:b0:bc:60:9c:3c:12:16:d8:3c:b7:f0:2d:
        1d:ad:83:a3:c5:63:17:8b:9f:e5:ce:70:5d:93:ad:f8:22:9b:
        45:ff:14:09:bd:e0:37:49:e8:df:a5:d5:4e:84:7f:55:92:f5:
        e9:08:5d:aa:6e:0e:6f:fd:a4:63:4b:b1:fb:32:36:ef:4c:90:
        31:fa:14:17:d8:ca:7e:9d:21:e8:44:5d:24:8f:38:e5:66:db:
        f7:0a:3b:38:14:04:49:ef:81:50:7b:e9:ff:f8:79:74:54:a3:
        4b:fd:dd:c2:b0:12:b3:da:75:ef:5e:8e:a0:48:18:da:12:b1:
        62:d2:e3:15:64:24:d9:db:f3:a8:45:bf:e9:8f:ee:56:76:3f:
        77:bf:69:35:59:d4:71:f4:2c:9b:3b:f6:7b:5b:ce:ec:cd:75:
        fa:35:16:19:38:29:ab:cc:bc:ea:fe:f2:76:99:71:02:1c:90:
        bc:43:86:9d:b5:8f:8a:89:7f:6a:87:f8:32:4a:c1:e6:1c:b9:
        a9:32:99:c9
-----BEGIN CERTIFICATE-----
MIIGnTCCBYWgAwIBAgIKIFQvLwACAABBvzANBgkqhkiG9w0BAQUFADBZMRIwEAYK
CZImiZPyLGQBGRYCY2gxFDASBgoJkiaJk/IsZAEZFgRjZXJuMS0wKwYDVQQDEyRD
RVJOIFRydXN0ZWQgQ2VydGlmaWNhdGlvbiBBdXRob3JpdHkwHhcNMDkwNjIyMTQ0
NDIwWhcNMTAwNjIyMTQ0NDIwWjBVMRIwEAYKCZImiZPyLGQBGRYCY2gxFDASBgoJ
kiaJk/IsZAEZFgRjZXJuMRIwEAYDVQQLEwljb21wdXRlcnMxFTATBgNVBAMTDHZv
bXMuY2Vybi5jaDCCASIwDQYJKoZIhvcNAQEBBQADggEPADCCAQoCggEBANOXKgbj
K64ME9Tqnls7/c+8DpfO65QpVUfxzaZ8EO091ZJNdZvYXjQ7W4TCtinCQ8JbLF2Y
2lTstVjkIUvkl0Y1qCKscH+LlICDbuX3zY3x0dA6zAb3yn7oqgEPBzLcpXnEZIXO
yDti1ABfiPzjYAx39FdkPbLKzXnmBOeRwFwXpl0aoklh6TlUKDxw774UZVBnRjJL
J47zsU3pAUhjSOcWgZTSl2vHDpoh9thrSvvD6KZRK2MUhX8zpOiacu/iFvVYttpG
7o8vAUXjpnheolvRCcOSleUZynaPwht8Q7MZK0FrxL61x4jWlSXV0Rb4aIVl9TDj
T3kN5TzxeevZ0J0CAwEAAaOCA2kwggNlMB0GA1UdDgQWBBRmyE22G6QbiON2Piyj
wk7DvWqmiDAfBgNVHSMEGDAWgBSYzJLQRjA2jLDtmA1yUalHTN2+ITCCATQGA1Ud
HwSCASswggEnMIIBI6CCAR+gggEbhkdodHRwOi8vY2EuY2Vybi5jaC9jYS9jcmwv
Q0VSTiUyMFRydXN0ZWQlMjBDZXJ0aWZpY2F0aW9uJTIwQXV0aG9yaXR5LmNybIaB
z2xkYXA6Ly8vQ049Q0VSTiUyMFRydXN0ZWQlMjBDZXJ0aWZpY2F0aW9uJTIwQXV0
aG9yaXR5LENOPWNlcm5wa2kwMSxDTj1DRFAsQ049UHVibGljJTIwS2V5JTIwU2Vy
dmljZXMsQ049U2VydmljZXMsQ049Q29uZmlndXJhdGlvbixEQz1jZXJuLERDPWNo
P2NlcnRpZmljYXRlUmV2b2NhdGlvbkxpc3Q/YmFzZT9vYmplY3RDbGFzcz1jUkxE
aXN0cmlidXRpb25Qb2ludDCCAUQGCCsGAQUFBwEBBIIBNjCCATIwaAYIKwYBBQUH
MAKGXGh0dHA6Ly9jYS5jZXJuLmNoL2NhL2NybC9jZXJucGtpMDEuY2Vybi5jaF9D
RVJOJTIwVHJ1c3RlZCUyMENlcnRpZmljYXRpb24lMjBBdXRob3JpdHkoMikuY3J0
MIHFBggrBgEFBQcwAoaBuGxkYXA6Ly8vQ049Q0VSTiUyMFRydXN0ZWQlMjBDZXJ0
aWZpY2F0aW9uJTIwQXV0aG9yaXR5LENOPUFJQSxDTj1QdWJsaWMlMjBLZXklMjBT
ZXJ2aWNlcyxDTj1TZXJ2aWNlcyxDTj1Db25maWd1cmF0aW9uLERDPWNlcm4sREM9
Y2g/Y0FDZXJ0aWZpY2F0ZT9iYXNlP29iamVjdENsYXNzPWNlcnRpZmljYXRpb25B
dXRob3JpdHkwDAYDVR0TAQH/BAIwADAOBgNVHQ8BAf8EBAMCBaAwPQYJKwYBBAGC
NxUHBDAwLgYmKwYBBAGCNxUIg73QCYLtjQ2G7Ysrgd71N4WA0GIehtLMUIHZ81sC
AWQCAQYwHQYDVR0lBBYwFAYIKwYBBQUHAwIGCCsGAQUFBwMBMCcGCSsGAQQBgjcV
CgQaMBgwCgYIKwYBBQUHAwIwCgYIKwYBBQUHAwEwDQYJKoZIhvcNAQEFBQADggEB
ALd2XQ0jLJIYugJ+nfTQc1PNuSjnyTi/kjgSHjG/ORSjB7GPdSHokK1NOjKr2ULs
T0b5BwWr13f+zkHvy7C8YJw8EhbYPLfwLR2tg6PFYxeLn+XOcF2Trfgim0X/FAm9
4DdJ6N+l1U6Ef1WS9ekIXapuDm/9pGNLsfsyNu9MkDH6FBfYyn6dIehEXSSPOOVm
2/cKOzgUBEnvgVB76f/4eXRUo0v93cKwErPade9ejqBIGNoSsWLS4xVkJNnb86hF
v+mP7lZ2P3e/aTVZ1HH0LJs79ntbzuzNdfo1Fhk4KavMvOr+8naZcQIckLxDhp21
j4qJf2qH+DJKweYcuakymck=
-----END CERTIFICATE-----
