Certificate:
    Data:
        Version: 3 (0x2)
        Serial Number: 35501 (0x8aad)
        Signature Algorithm: sha1WithRSAEncryption
        Issuer: DC=org, DC=DOEGrids, OU=Certificate Authorities, CN=DOEGrids CA 1
        Validity
            Not Before: Sep 10 19:24:38 2009 GMT
            Not After : Sep 10 19:24:38 2010 GMT
        Subject: DC=org, DC=doegrids, OU=Services, CN=http/voms.fnal.gov
        Subject Public Key Info:
            Public Key Algorithm: rsaEncryption
            RSA Public Key: (2048 bit)
                Modulus (2048 bit):
                    00:d5:77:1e:14:f3:78:5d:8b:21:de:77:21:90:16:
                    90:cb:db:2f:68:5b:ea:dc:26:b5:15:53:cf:6f:e8:
                    93:89:48:46:b3:a0:77:2f:d4:0c:ff:4c:2b:0d:2b:
                    a0:01:40:1d:6f:da:db:75:ea:e7:23:f9:8e:bd:f7:
                    f9:e3:b7:c7:03:7d:88:c7:fb:dc:db:14:f0:31:84:
                    e5:84:4b:69:d2:c6:97:88:0d:29:f2:c6:dd:83:25:
                    6f:6c:21:4b:bb:05:b8:79:86:d5:16:5e:d7:b7:eb:
                    58:20:d3:2a:54:d5:6b:e8:b9:52:df:f3:dc:dc:8d:
                    ba:53:68:fe:01:93:17:fc:0c:eb:9e:18:9b:5b:23:
                    b0:35:4c:21:a9:a3:29:0d:54:00:6a:ed:eb:f7:83:
                    9b:9b:ca:bc:48:d6:69:9e:a4:54:e9:6c:f4:90:a9:
                    f2:42:2f:aa:ba:b6:0e:b4:c7:b6:98:dd:ad:ec:9e:
                    b6:36:dc:65:7f:6a:5a:d5:5b:b9:54:79:6d:47:0e:
                    a6:d0:c1:1c:96:42:4b:07:94:a5:8a:fd:1b:a1:97:
                    0c:17:2c:91:f9:5a:19:32:21:94:40:32:e9:1e:99:
                    8a:d9:b9:c3:31:21:8a:da:d2:5d:0b:ed:6e:fc:98:
                    b6:51:a8:f7:0b:a7:a4:99:68:fe:cf:30:8c:4b:71:
                    71:71
                Exponent: 65537 (0x10001)
        X509v3 extensions:
            Netscape Cert Type: 
                SSL Client, SSL Server, S/MIME
            X509v3 Key Usage: critical
                Digital Signature, Non Repudiation, Key Encipherment, Data Encipherment
            X509v3 Certificate Policies: 
                Policy: 1.2.840.113612.3.7.1.2.10

            X509v3 CRL Distribution Points: 
                URI:http://crl.doegrids.org/1c3f2ca8/1c3f2ca8.crl

            X509v3 Subject Alternative Name: 
                DNS:voms.fnal.gov, email:fermigrid-root@fnal.gov
            X509v3 Authority Key Identifier: 
                keyid:CA:19:1D:12:8E:6E:A4:38:5D:42:D4:31:0E:08:DB:D9:8D:17:0D:5D

    Signature Algorithm: sha1WithRSAEncryption
        50:67:28:99:47:5b:5a:9a:a4:b8:26:35:b0:55:5a:2b:74:9c:
        cc:97:cf:0f:77:9f:01:a8:03:35:da:86:f8:00:23:b9:08:08:
        66:c2:a7:c3:2c:e0:69:67:5e:33:c3:ce:72:30:73:83:73:cf:
        b3:99:e6:d0:1e:20:f1:b6:bd:5b:92:32:5c:b3:bc:9b:24:84:
        97:0f:f6:ad:37:87:30:44:4e:44:d4:a0:20:18:75:65:cc:c8:
        ce:1e:5b:92:ab:d7:8a:51:9e:e7:de:98:9e:5a:e1:80:e8:c9:
        8b:cb:ce:6d:a2:a1:a0:aa:7d:82:a6:a8:0c:25:92:e8:11:35:
        93:7e:3f:b0:f9:f8:c8:a1:77:50:0a:f6:df:42:a0:96:dc:98:
        a3:21:7c:fe:81:5b:df:a9:aa:3b:e3:19:06:49:e3:bd:1c:b0:
        6e:28:fc:0a:8c:73:86:12:6d:cf:03:11:eb:16:0d:ba:3f:65:
        19:ce:71:8f:ca:28:ae:f0:8a:30:36:89:fc:fb:31:e8:29:7c:
        34:06:a0:36:a7:ae:cc:b9:85:ca:ed:16:35:c2:ad:f7:a0:5f:
        c9:01:7a:cf:9f:a9:6c:2a:3b:a0:59:11:3b:e4:36:e2:ca:e0:
        b9:b5:84:6a:f6:f7:31:3e:51:34:06:39:2c:97:4a:54:a9:e3:
        bc:3a:28:3a
-----BEGIN CERTIFICATE-----
MIIEGjCCAwKgAwIBAgIDAIqtMA0GCSqGSIb3DQEBBQUAMGkxEzARBgoJkiaJk/Is
ZAEZFgNvcmcxGDAWBgoJkiaJk/IsZAEZFghET0VHcmlkczEgMB4GA1UECxMXQ2Vy
dGlmaWNhdGUgQXV0aG9yaXRpZXMxFjAUBgNVBAMTDURPRUdyaWRzIENBIDEwHhcN
MDkwOTEwMTkyNDM4WhcNMTAwOTEwMTkyNDM4WjBfMRMwEQYKCZImiZPyLGQBGRYD
b3JnMRgwFgYKCZImiZPyLGQBGRYIZG9lZ3JpZHMxETAPBgNVBAsTCFNlcnZpY2Vz
MRswGQYDVQQDExJodHRwL3ZvbXMuZm5hbC5nb3YwggEiMA0GCSqGSIb3DQEBAQUA
A4IBDwAwggEKAoIBAQDVdx4U83hdiyHedyGQFpDL2y9oW+rcJrUVU89v6JOJSEaz
oHcv1Az/TCsNK6ABQB1v2tt16ucj+Y699/njt8cDfYjH+9zbFPAxhOWES2nSxpeI
DSnyxt2DJW9sIUu7Bbh5htUWXte361gg0ypU1WvouVLf89zcjbpTaP4Bkxf8DOue
GJtbI7A1TCGpoykNVABq7ev3g5ubyrxI1mmepFTpbPSQqfJCL6q6tg60x7aY3a3s
nrY23GV/alrVW7lUeW1HDqbQwRyWQksHlKWK/RuhlwwXLJH5WhkyIZRAMukemYrZ
ucMxIYra0l0L7W78mLZRqPcLp6SZaP7PMIxLcXFxAgMBAAGjgdQwgdEwEQYJYIZI
AYb4QgEBBAQDAgXgMA4GA1UdDwEB/wQEAwIE8DAYBgNVHSAEETAPMA0GCyqGSIb3
TAMHAQIKMD4GA1UdHwQ3MDUwM6AxoC+GLWh0dHA6Ly9jcmwuZG9lZ3JpZHMub3Jn
LzFjM2YyY2E4LzFjM2YyY2E4LmNybDAxBgNVHREEKjAogg12b21zLmZuYWwuZ292
gRdmZXJtaWdyaWQtcm9vdEBmbmFsLmdvdjAfBgNVHSMEGDAWgBTKGR0Sjm6kOF1C
1DEOCNvZjRcNXTANBgkqhkiG9w0BAQUFAAOCAQEAUGcomUdbWpqkuCY1sFVaK3Sc
zJfPD3efAagDNdqG+AAjuQgIZsKnwyzgaWdeM8POcjBzg3PPs5nm0B4g8ba9W5Iy
XLO8mySElw/2rTeHMERORNSgIBh1ZczIzh5bkqvXilGe596YnlrhgOjJi8vObaKh
oKp9gqaoDCWS6BE1k34/sPn4yKF3UAr230KgltyYoyF8/oFb36mqO+MZBknjvRyw
bij8CoxzhhJtzwMR6xYNuj9lGc5xj8oorvCKMDaJ/Psx6Cl8NAagNqeuzLmFyu0W
NcKt96BfyQF6z5+pbCo7oFkRO+Q24srgubWEavb3MT5RNAY5LJdKVKnjvDooOg==
-----END CERTIFICATE-----
