Certificate:
    Data:
        Version: 3 (0x2)
        Serial Number:
            48:d1:e9:b6:00:02:00:00:42:8a
        Signature Algorithm: sha1WithRSAEncryption
        Issuer: DC=ch, DC=cern, CN=CERN Trusted Certification Authority
        Validity
            Not Before: Jun 30 11:26:29 2009 GMT
            Not After : Jun 30 11:26:29 2010 GMT
        Subject: DC=ch, DC=cern, OU=computers, CN=voms-pilot.cern.ch
        Subject Public Key Info:
            Public Key Algorithm: rsaEncryption
            RSA Public Key: (2048 bit)
                Modulus (2048 bit):
                    00:a2:e9:5f:c1:83:dc:33:56:3d:ff:12:5c:e3:4d:
                    d8:4a:b5:cb:30:84:99:0c:8d:07:cc:a1:4b:70:30:
                    f3:e5:08:e5:25:7b:63:57:4f:6c:95:fb:63:f6:2a:
                    30:82:69:78:f4:86:4c:e3:73:04:ec:65:d8:95:08:
                    d9:d8:84:0c:90:85:e9:11:70:ed:79:86:1a:bf:38:
                    11:a1:c2:39:c9:1a:cc:15:fb:0c:7e:bd:e9:18:27:
                    ca:c9:be:4e:3a:e7:50:eb:15:33:2f:84:86:b6:ee:
                    ab:7d:86:e7:ea:52:cd:34:52:2d:c6:8e:4b:bb:7f:
                    d5:34:ef:8c:78:af:5e:3f:ff:66:e7:42:07:ed:f0:
                    22:c8:e2:2b:8c:e3:65:6a:37:da:17:16:61:f2:98:
                    4a:8f:f4:e7:2e:2e:f2:fa:f3:58:4e:c0:25:42:78:
                    7c:b8:01:35:bd:76:5f:9e:4e:dd:41:a4:57:6c:a4:
                    98:39:cd:8d:2b:72:4c:59:13:00:93:26:0c:20:06:
                    9e:46:bc:e9:d5:89:f3:1f:79:cd:bf:7b:c8:84:63:
                    8e:04:37:d4:c1:a6:3b:1f:9c:79:4c:e5:36:cc:e8:
                    53:fd:d7:38:57:9e:00:97:17:99:6e:1f:fd:60:f2:
                    08:60:01:04:af:1e:ab:6c:6f:6a:2a:7e:f4:05:89:
                    83:bf
                Exponent: 65537 (0x10001)
        X509v3 extensions:
            X509v3 Subject Key Identifier: 
                C3:E2:D3:BA:78:54:33:B0:1F:F3:E5:CF:07:04:65:AD:42:A4:10:9C
            X509v3 Authority Key Identifier: 
                keyid:98:CC:92:D0:46:30:36:8C:B0:ED:98:0D:72:51:A9:47:4C:DD:BE:21

            X509v3 CRL Distribution Points: 
                URI:http://ca.cern.ch/ca/crl/CERN%20Trusted%20Certification%20Authority.crl
                URI:ldap:///CN=CERN%20Trusted%20Certification%20Authority,CN=cernpki01,CN=CDP,CN=Public%20Key%20Services,CN=Services,CN=Configuration,DC=cern,DC=ch?certificateRevocationList?base?objectClass=cRLDistributionPoint

            Authority Information Access: 
                CA Issuers - URI:http://ca.cern.ch/ca/crl/cernpki01.cern.ch_CERN%20Trusted%20Certification%20Authority(2).crt
                CA Issuers - URI:ldap:///CN=CERN%20Trusted%20Certification%20Authority,CN=AIA,CN=Public%20Key%20Services,CN=Services,CN=Configuration,DC=cern,DC=ch?cACertificate?base?objectClass=certificationAuthority

            X509v3 Basic Constraints: critical
                CA:FALSE
            X509v3 Key Usage: critical
                Digital Signature, Key Encipherment
            1.3.6.1.4.1.311.21.7: 
                0..&+.....7............+...7...b....P...[..d...
            X509v3 Extended Key Usage: 
                TLS Web Client Authentication, TLS Web Server Authentication
            1.3.6.1.4.1.311.21.10: 
                0.0
..+.......0
..+.......
    Signature Algorithm: sha1WithRSAEncryption
        93:b1:29:9d:92:07:d5:5e:5c:a4:7d:bd:09:14:7b:a6:98:3a:
        43:3b:14:1b:3b:ef:91:ad:64:4e:8b:a6:a2:1a:1b:72:f6:ee:
        34:bf:51:97:e4:9f:58:a2:0c:0a:93:eb:ad:d1:2c:1f:6c:68:
        32:2e:f8:d3:e1:71:4d:51:db:ef:34:7d:18:41:2b:fb:d8:95:
        a2:fe:e2:49:ac:8b:16:52:d8:67:a4:e7:5a:9c:12:98:d6:0a:
        97:07:5c:7b:af:7e:f4:d5:38:ff:de:97:d5:bd:0a:e2:c7:a2:
        b4:be:d2:bd:8c:49:28:63:18:82:1b:ef:30:61:92:80:a5:ad:
        45:65:43:90:bf:cc:ea:48:37:e2:40:ee:0e:8c:2d:61:66:89:
        32:87:8f:d6:5f:51:c2:a8:ea:d1:fe:79:98:bf:fa:ab:20:ad:
        cb:82:32:9f:0c:bf:e7:ff:67:cb:6e:63:17:09:7a:63:c6:d8:
        42:20:30:d6:11:86:bb:d8:e1:40:59:8d:28:92:62:b2:5c:e8:
        16:f7:1f:c9:89:e0:4c:5e:59:5d:a9:4c:a4:72:a3:e8:3f:b4:
        07:20:a2:5d:c8:3f:fa:71:47:07:46:24:b8:bc:81:2b:34:a6:
        a7:71:ff:c5:82:51:4a:59:f9:20:89:c9:4d:ae:00:39:5d:78:
        f8:f7:44:01
-----BEGIN CERTIFICATE-----
MIIGozCCBYugAwIBAgIKSNHptgACAABCijANBgkqhkiG9w0BAQUFADBZMRIwEAYK
CZImiZPyLGQBGRYCY2gxFDASBgoJkiaJk/IsZAEZFgRjZXJuMS0wKwYDVQQDEyRD
RVJOIFRydXN0ZWQgQ2VydGlmaWNhdGlvbiBBdXRob3JpdHkwHhcNMDkwNjMwMTEy
NjI5WhcNMTAwNjMwMTEyNjI5WjBbMRIwEAYKCZImiZPyLGQBGRYCY2gxFDASBgoJ
kiaJk/IsZAEZFgRjZXJuMRIwEAYDVQQLEwljb21wdXRlcnMxGzAZBgNVBAMTEnZv
bXMtcGlsb3QuY2Vybi5jaDCCASIwDQYJKoZIhvcNAQEBBQADggEPADCCAQoCggEB
AKLpX8GD3DNWPf8SXONN2Eq1yzCEmQyNB8yhS3Aw8+UI5SV7Y1dPbJX7Y/YqMIJp
ePSGTONzBOxl2JUI2diEDJCF6RFw7XmGGr84EaHCOckazBX7DH696Rgnysm+Tjrn
UOsVMy+Ehrbuq32G5+pSzTRSLcaOS7t/1TTvjHivXj//ZudCB+3wIsjiK4zjZWo3
2hcWYfKYSo/05y4u8vrzWE7AJUJ4fLgBNb12X55O3UGkV2ykmDnNjStyTFkTAJMm
DCAGnka86dWJ8x95zb97yIRjjgQ31MGmOx+ceUzlNszoU/3XOFeeAJcXmW4f/WDy
CGABBK8eq2xvaip+9AWJg78CAwEAAaOCA2kwggNlMB0GA1UdDgQWBBTD4tO6eFQz
sB/z5c8HBGWtQqQQnDAfBgNVHSMEGDAWgBSYzJLQRjA2jLDtmA1yUalHTN2+ITCC
ATQGA1UdHwSCASswggEnMIIBI6CCAR+gggEbhkdodHRwOi8vY2EuY2Vybi5jaC9j
YS9jcmwvQ0VSTiUyMFRydXN0ZWQlMjBDZXJ0aWZpY2F0aW9uJTIwQXV0aG9yaXR5
LmNybIaBz2xkYXA6Ly8vQ049Q0VSTiUyMFRydXN0ZWQlMjBDZXJ0aWZpY2F0aW9u
JTIwQXV0aG9yaXR5LENOPWNlcm5wa2kwMSxDTj1DRFAsQ049UHVibGljJTIwS2V5
JTIwU2VydmljZXMsQ049U2VydmljZXMsQ049Q29uZmlndXJhdGlvbixEQz1jZXJu
LERDPWNoP2NlcnRpZmljYXRlUmV2b2NhdGlvbkxpc3Q/YmFzZT9vYmplY3RDbGFz
cz1jUkxEaXN0cmlidXRpb25Qb2ludDCCAUQGCCsGAQUFBwEBBIIBNjCCATIwaAYI
KwYBBQUHMAKGXGh0dHA6Ly9jYS5jZXJuLmNoL2NhL2NybC9jZXJucGtpMDEuY2Vy
bi5jaF9DRVJOJTIwVHJ1c3RlZCUyMENlcnRpZmljYXRpb24lMjBBdXRob3JpdHko
MikuY3J0MIHFBggrBgEFBQcwAoaBuGxkYXA6Ly8vQ049Q0VSTiUyMFRydXN0ZWQl
MjBDZXJ0aWZpY2F0aW9uJTIwQXV0aG9yaXR5LENOPUFJQSxDTj1QdWJsaWMlMjBL
ZXklMjBTZXJ2aWNlcyxDTj1TZXJ2aWNlcyxDTj1Db25maWd1cmF0aW9uLERDPWNl
cm4sREM9Y2g/Y0FDZXJ0aWZpY2F0ZT9iYXNlP29iamVjdENsYXNzPWNlcnRpZmlj
YXRpb25BdXRob3JpdHkwDAYDVR0TAQH/BAIwADAOBgNVHQ8BAf8EBAMCBaAwPQYJ
KwYBBAGCNxUHBDAwLgYmKwYBBAGCNxUIg73QCYLtjQ2G7Ysrgd71N4WA0GIehtLM
UIHZ81sCAWQCAQYwHQYDVR0lBBYwFAYIKwYBBQUHAwIGCCsGAQUFBwMBMCcGCSsG
AQQBgjcVCgQaMBgwCgYIKwYBBQUHAwIwCgYIKwYBBQUHAwEwDQYJKoZIhvcNAQEF
BQADggEBAJOxKZ2SB9VeXKR9vQkUe6aYOkM7FBs775GtZE6LpqIaG3L27jS/UZfk
n1iiDAqT663RLB9saDIu+NPhcU1R2+80fRhBK/vYlaL+4kmsixZS2Gek51qcEpjW
CpcHXHuvfvTVOP/el9W9CuLHorS+0r2MSShjGIIb7zBhkoClrUVlQ5C/zOpIN+JA
7g6MLWFmiTKHj9ZfUcKo6tH+eZi/+qsgrcuCMp8Mv+f/Z8tuYxcJemPG2EIgMNYR
hrvY4UBZjSiSYrJc6Bb3H8mJ4ExeWV2pTKRyo+g/tAcgol3IP/pxRwdGJLi8gSs0
pqdx/8WCUUpZ+SCJyU2uADldePj3RAE=
-----END CERTIFICATE-----
